Certificate:
    Data:
        Version: 3 (0x2)
        Serial Number: 1 (0x1)
        Signature Algorithm: md5WithRSAEncryption
        Issuer: C=DE, L=Neuwied, O=AMOOMA GmbH, OU=Certification Authority for bsi-live, CN=bsi-live/emailAddress=ca@bsi-live
        Validity
            Not Before: Nov  1 20:27:53 2010 GMT
            Not After : Jul 27 20:27:53 2013 GMT
        Subject: C=DE, L=Neuwied, O=AMOOMA GmbH, OU=Server certificate for bsi-live, CN=bsi-live/emailAddress=openvasd@bsi-live
        Subject Public Key Info:
            Public Key Algorithm: rsaEncryption
            RSA Public Key: (1024 bit)
                Modulus (1024 bit):
                    00:d2:55:03:73:5e:b7:6b:7a:d9:59:e4:9b:75:3c:
                    11:9f:c2:9d:b2:0a:30:31:96:24:9a:ce:e3:23:0f:
                    8a:fa:bd:a3:7a:ef:46:f6:0c:da:e1:ba:a0:37:2f:
                    4d:02:ea:f9:c4:1f:33:8c:78:8e:12:ef:70:49:40:
                    c6:b2:41:ce:98:ea:74:c4:5a:a6:e8:9f:b9:06:00:
                    12:f1:51:2e:c0:d9:9d:c5:31:0f:c4:b9:8b:76:c7:
                    c0:9c:d6:c7:44:ef:8a:25:d8:6e:16:ba:83:a4:a6:
                    97:00:e4:65:84:be:72:7d:69:3c:d0:4e:e7:39:f5:
                    d9:c2:5b:75:4d:fc:1e:ac:db
                Exponent: 65537 (0x10001)
        X509v3 extensions:
            Netscape Cert Type: 
                SSL Server
            X509v3 Key Usage: 
                Digital Signature, Non Repudiation, Key Encipherment
            Netscape Comment: 
                OpenSSL Generated Certificate
            X509v3 Subject Key Identifier: 
                81:39:D7:DC:C4:8E:46:E5:5D:71:F6:12:D2:DE:35:F6:22:B1:B5:E2
            X509v3 Authority Key Identifier: 
                keyid:F6:0C:CD:79:E3:8A:78:40:30:2A:F1:D8:01:FB:A2:7E:67:AD:CE:97
                DirName:/C=DE/L=Neuwied/O=AMOOMA GmbH/OU=Certification Authority for bsi-live/CN=bsi-live/emailAddress=ca@bsi-live
                serial:CE:80:6D:71:BD:C8:42:0A

            X509v3 Subject Alternative Name: 
                email:openvasd@bsi-live
            X509v3 Issuer Alternative Name: 
                <EMPTY>

    Signature Algorithm: md5WithRSAEncryption
        3e:3c:5e:3e:d8:e7:fa:55:fb:ee:40:17:20:4a:e3:d5:13:c5:
        2d:d7:2b:2e:82:b6:b8:16:83:3f:b1:2c:58:c7:45:e6:29:3e:
        15:94:54:48:37:ac:50:24:e1:51:82:06:3e:88:74:c0:58:92:
        b3:b1:d7:93:d4:ef:e0:5b:bf:22:61:f2:ab:b1:1d:43:64:a5:
        01:a5:33:fd:0c:0b:d5:c4:ef:00:37:65:01:cf:c7:b9:f3:9b:
        b5:c2:df:67:00:6d:8a:c3:97:9b:84:b0:f7:9c:bd:63:4c:ed:
        a7:f4:60:ab:75:d6:77:1d:f2:74:ce:c9:53:c0:1c:c0:0d:de:
        90:ae
-----BEGIN CERTIFICATE-----
MIIEBjCCA2+gAwIBAgIBATANBgkqhkiG9w0BAQQFADCBkzELMAkGA1UEBhMCREUx
EDAOBgNVBAcTB05ldXdpZWQxFDASBgNVBAoTC0FNT09NQSBHbWJIMS0wKwYDVQQL
EyRDZXJ0aWZpY2F0aW9uIEF1dGhvcml0eSBmb3IgYnNpLWxpdmUxETAPBgNVBAMT
CGJzaS1saXZlMRowGAYJKoZIhvcNAQkBFgtjYUBic2ktbGl2ZTAeFw0xMDExMDEy
MDI3NTNaFw0xMzA3MjcyMDI3NTNaMIGUMQswCQYDVQQGEwJERTEQMA4GA1UEBxMH
TmV1d2llZDEUMBIGA1UEChMLQU1PT01BIEdtYkgxKDAmBgNVBAsTH1NlcnZlciBj
ZXJ0aWZpY2F0ZSBmb3IgYnNpLWxpdmUxETAPBgNVBAMTCGJzaS1saXZlMSAwHgYJ
KoZIhvcNAQkBFhFvcGVudmFzZEBic2ktbGl2ZTCBnzANBgkqhkiG9w0BAQEFAAOB
jQAwgYkCgYEA0lUDc163a3rZWeSbdTwRn8KdsgowMZYkms7jIw+K+r2jeu9G9gza
4bqgNy9NAur5xB8zjHiOEu9wSUDGskHOmOp0xFqm6J+5BgAS8VEuwNmdxTEPxLmL
dsfAnNbHRO+KJdhuFrqDpKaXAORlhL5yfWk80E7nOfXZwlt1TfwerNsCAwEAAaOC
AWUwggFhMBEGCWCGSAGG+EIBAQQEAwIGQDALBgNVHQ8EBAMCBeAwLAYJYIZIAYb4
QgENBB8WHU9wZW5TU0wgR2VuZXJhdGVkIENlcnRpZmljYXRlMB0GA1UdDgQWBBSB
OdfcxI5G5V1x9hLS3jX2IrG14jCByAYDVR0jBIHAMIG9gBT2DM1544p4QDAq8dgB
+6J+Z63Ol6GBmaSBljCBkzELMAkGA1UEBhMCREUxEDAOBgNVBAcTB05ldXdpZWQx
FDASBgNVBAoTC0FNT09NQSBHbWJIMS0wKwYDVQQLEyRDZXJ0aWZpY2F0aW9uIEF1
dGhvcml0eSBmb3IgYnNpLWxpdmUxETAPBgNVBAMTCGJzaS1saXZlMRowGAYJKoZI
hvcNAQkBFgtjYUBic2ktbGl2ZYIJAM6AbXG9yEIKMBwGA1UdEQQVMBOBEW9wZW52
YXNkQGJzaS1saXZlMAkGA1UdEgQCMAAwDQYJKoZIhvcNAQEEBQADgYEAPjxePtjn
+lX77kAXIErj1RPFLdcrLoK2uBaDP7EsWMdF5ik+FZRUSDesUCThUYIGPoh0wFiS
s7HXk9Tv4Fu/ImHyq7EdQ2SlAaUz/QwL1cTvADdlAc/HufObtcLfZwBtisOXm4Sw
95y9Y0ztp/Rgq3XWdx3ydM7JU8AcwA3ekK4=
-----END CERTIFICATE-----
